; Function Attrs: nounwind uwtable
define void @modifyAigToApplySafetyInvar(ptr noundef %0, i32 noundef %1, i32 noundef %2) local_unnamed_addr #2 {
  %4 = getelementptr i8, ptr %0, i64 24
  %.val13 = load ptr, ptr %4, align 8, !tbaa !3
  %5 = getelementptr i8, ptr %.val13, i64 8
  %.val13.val = load ptr, ptr %5, align 8, !tbaa !21
  %6 = sext i32 %2 to i64
  %7 = getelementptr inbounds ptr, ptr %.val13.val, i64 %6
  %8 = load ptr, ptr %7, align 8, !tbaa !23
  %9 = getelementptr i8, ptr %8, i64 8
  %.val1518 = load ptr, ptr %9, align 8, !tbaa !24
  %10 = sext i32 %1 to i64
  %11 = getelementptr inbounds ptr, ptr %.val13.val, i64 %10
  %12 = load ptr, ptr %11, align 8, !tbaa !23
  %13 = getelementptr i8, ptr %12, i64 8
  %.val1419 = load ptr, ptr %13, align 8, !tbaa !24
  %14 = tail call ptr @Aig_And(ptr noundef %0, ptr noundef %.val1518, ptr noundef %.val1419) #17
  tail call void @Aig_ObjPatchFanin0(ptr noundef %0, ptr noundef %12, ptr noundef %14) #17
  ret void
}